target datalayout = "e-m:e-p270:32:32-p271:32:32-p272:64:64-i64:64-i128:128-f80:128-n8:16:32:64-S128"
target triple = "x86_64-pc-linux-gnu"

%"class.std::__cxx11::basic_string" = type { %"struct.std::__cxx11::basic_string<char>::_Alloc_hider", i64, %union.anon }
%"struct.std::__cxx11::basic_string<char>::_Alloc_hider" = type { ptr }
%union.anon = type { i64, [8 x i8] }
%class.colvarbias_meta = type { ptr, i32, double, %"class.std::vector.3", i64, i8, %"class.std::__cxx11::list", %"struct.std::_List_iterator", %"class.std::__cxx11::list", %"struct.std::_List_iterator", double, i8, i8, i8, i64, i8, i8, i8, i8, i8, i8, double, i8, ptr, i64, i8, ptr, ptr, %"class.std::__cxx11::basic_string", %"class.std::__cxx11::basic_string", %"class.std::vector.11", i64, %"class.std::__cxx11::basic_string", %"class.std::__cxx11::basic_string", %"class.std::__cxx11::basic_string", %"class.std::__cxx11::basic_string", i8, i64, %"class.std::__cxx11::basic_string", %"class.std::fpos", %"class.std::__cxx11::basic_ostringstream", %class.colvarbias.base, %class.colvarparse, %class.colvardeps, %class.colvarbias_ti.base }
%"class.std::vector.3" = type { %"struct.std::_Vector_base.4" }
%"struct.std::_Vector_base.4" = type { %"struct.std::_Vector_base<double, std::allocator<double>>::_Vector_impl" }
%"struct.std::_Vector_base<double, std::allocator<double>>::_Vector_impl" = type { %"struct.std::_Vector_base<double, std::allocator<double>>::_Vector_impl_data" }
%"struct.std::_Vector_base<double, std::allocator<double>>::_Vector_impl_data" = type { ptr, ptr, ptr }
%"class.std::__cxx11::list" = type { %"class.std::__cxx11::_List_base" }
%"class.std::__cxx11::_List_base" = type { %"struct.std::__cxx11::_List_base<colvarbias_meta::hill, std::allocator<colvarbias_meta::hill>>::_List_impl" }
%"struct.std::__cxx11::_List_base<colvarbias_meta::hill, std::allocator<colvarbias_meta::hill>>::_List_impl" = type { %"struct.std::__detail::_List_node_header" }
%"struct.std::__detail::_List_node_header" = type { %"struct.std::__detail::_List_node_base", i64 }
%"struct.std::__detail::_List_node_base" = type { ptr, ptr }
%"struct.std::_List_iterator" = type { ptr }
%"class.std::vector.11" = type { %"struct.std::_Vector_base.12" }
%"struct.std::_Vector_base.12" = type { %"struct.std::_Vector_base<colvarbias_meta *, std::allocator<colvarbias_meta *>>::_Vector_impl" }
%"struct.std::_Vector_base<colvarbias_meta *, std::allocator<colvarbias_meta *>>::_Vector_impl" = type { %"struct.std::_Vector_base<colvarbias_meta *, std::allocator<colvarbias_meta *>>::_Vector_impl_data" }
%"struct.std::_Vector_base<colvarbias_meta *, std::allocator<colvarbias_meta *>>::_Vector_impl_data" = type { ptr, ptr, ptr }
%"class.std::fpos" = type { i64, %struct.__mbstate_t }
%struct.__mbstate_t = type { i32, %union.anon.16 }
%union.anon.16 = type { i32 }
%"class.std::__cxx11::basic_ostringstream" = type { %"class.std::basic_ostream.base", %"class.std::__cxx11::basic_stringbuf", %"class.std::basic_ios" }
%"class.std::basic_ostream.base" = type { ptr }
%"class.std::__cxx11::basic_stringbuf" = type { %"class.std::basic_streambuf", i32, %"class.std::__cxx11::basic_string" }
%"class.std::basic_streambuf" = type { ptr, ptr, ptr, ptr, ptr, ptr, ptr, %"class.std::locale" }
%"class.std::locale" = type { ptr }
%"class.std::basic_ios" = type { %"class.std::ios_base", ptr, i8, i8, ptr, ptr, ptr, ptr }
%"class.std::ios_base" = type { ptr, i64, i64, i32, i32, i32, ptr, %"struct.std::ios_base::_Words", [8 x %"struct.std::ios_base::_Words"], i32, ptr, %"class.std::locale" }
%"struct.std::ios_base::_Words" = type { ptr, i64 }
%class.colvarbias.base = type { ptr, %"class.std::__cxx11::basic_string", %"class.std::__cxx11::basic_string", %"class.std::__cxx11::basic_string", i32, i64, %"class.std::__cxx11::basic_string", %"class.std::vector.50", %"class.std::vector.55", %"class.std::vector.55", %"class.std::vector.55", double, i8, i8, i64, i8, ptr, %"class.std::vector.60" }
%"class.std::vector.50" = type { %"struct.std::_Vector_base.51" }
%"struct.std::_Vector_base.51" = type { %"struct.std::_Vector_base<colvar *, std::allocator<colvar *>>::_Vector_impl" }
%"struct.std::_Vector_base<colvar *, std::allocator<colvar *>>::_Vector_impl" = type { %"struct.std::_Vector_base<colvar *, std::allocator<colvar *>>::_Vector_impl_data" }
%"struct.std::_Vector_base<colvar *, std::allocator<colvar *>>::_Vector_impl_data" = type { ptr, ptr, ptr }
%"class.std::vector.55" = type { %"struct.std::_Vector_base.56" }
%"struct.std::_Vector_base.56" = type { %"struct.std::_Vector_base<colvarvalue, std::allocator<colvarvalue>>::_Vector_impl" }
%"struct.std::_Vector_base<colvarvalue, std::allocator<colvarvalue>>::_Vector_impl" = type { %"struct.std::_Vector_base<colvarvalue, std::allocator<colvarvalue>>::_Vector_impl_data" }
%"struct.std::_Vector_base<colvarvalue, std::allocator<colvarvalue>>::_Vector_impl_data" = type { ptr, ptr, ptr }
%"class.std::vector.60" = type { %"struct.std::_Vector_base.61" }
%"struct.std::_Vector_base.61" = type { %"struct.std::_Vector_base<int, std::allocator<int>>::_Vector_impl" }
%"struct.std::_Vector_base<int, std::allocator<int>>::_Vector_impl" = type { %"struct.std::_Vector_base<int, std::allocator<int>>::_Vector_impl_data" }
%"struct.std::_Vector_base<int, std::allocator<int>>::_Vector_impl_data" = type { ptr, ptr, ptr }
%class.colvarparse = type { %class.colvarparams, %"class.std::__cxx11::basic_string", %"class.std::__cxx11::basic_string", %"class.std::__cxx11::list.25", %"class.std::map.30", %"class.std::__cxx11::list.35", %"class.std::__cxx11::list.35", %"class.std::__cxx11::basic_string" }
%class.colvarparams = type { ptr, %"class.std::map", %"class.std::map.20" }
%"class.std::map" = type { %"class.std::_Rb_tree" }
%"class.std::_Rb_tree" = type { %"struct.std::_Rb_tree<std::__cxx11::basic_string<char>, std::pair<const std::__cxx11::basic_string<char>, const void *>, std::_Select1st<std::pair<const std::__cxx11::basic_string<char>, const void *>>, std::less<std::__cxx11::basic_string<char>>>::_Rb_tree_impl" }
%"struct.std::_Rb_tree<std::__cxx11::basic_string<char>, std::pair<const std::__cxx11::basic_string<char>, const void *>, std::_Select1st<std::pair<const std::__cxx11::basic_string<char>, const void *>>, std::less<std::__cxx11::basic_string<char>>>::_Rb_tree_impl" = type { %"struct.std::_Rb_tree_key_compare", %"struct.std::_Rb_tree_header" }
%"struct.std::_Rb_tree_key_compare" = type { %"struct.std::less" }
%"struct.std::less" = type { i8 }
%"struct.std::_Rb_tree_header" = type { %"struct.std::_Rb_tree_node_base", i64 }
%"struct.std::_Rb_tree_node_base" = type { i32, ptr, ptr, ptr }
%"class.std::map.20" = type { %"class.std::_Rb_tree.21" }
%"class.std::_Rb_tree.21" = type { %"struct.std::_Rb_tree<std::__cxx11::basic_string<char>, std::pair<const std::__cxx11::basic_string<char>, const colvarvalue *>, std::_Select1st<std::pair<const std::__cxx11::basic_string<char>, const colvarvalue *>>, std::less<std::__cxx11::basic_string<char>>>::_Rb_tree_impl" }
%"struct.std::_Rb_tree<std::__cxx11::basic_string<char>, std::pair<const std::__cxx11::basic_string<char>, const colvarvalue *>, std::_Select1st<std::pair<const std::__cxx11::basic_string<char>, const colvarvalue *>>, std::less<std::__cxx11::basic_string<char>>>::_Rb_tree_impl" = type { %"struct.std::_Rb_tree_key_compare", %"struct.std::_Rb_tree_header" }
%"class.std::__cxx11::list.25" = type { %"class.std::__cxx11::_List_base.26" }
%"class.std::__cxx11::_List_base.26" = type { %"struct.std::__cxx11::_List_base<std::__cxx11::basic_string<char>, std::allocator<std::__cxx11::basic_string<char>>>::_List_impl" }
%"struct.std::__cxx11::_List_base<std::__cxx11::basic_string<char>, std::allocator<std::__cxx11::basic_string<char>>>::_List_impl" = type { %"struct.std::__detail::_List_node_header" }
%"class.std::map.30" = type { %"class.std::_Rb_tree.31" }
%"class.std::_Rb_tree.31" = type { %"struct.std::_Rb_tree<std::__cxx11::basic_string<char>, std::pair<const std::__cxx11::basic_string<char>, colvarparse::key_set_mode>, std::_Select1st<std::pair<const std::__cxx11::basic_string<char>, colvarparse::key_set_mode>>, std::less<std::__cxx11::basic_string<char>>>::_Rb_tree_impl" }
%"struct.std::_Rb_tree<std::__cxx11::basic_string<char>, std::pair<const std::__cxx11::basic_string<char>, colvarparse::key_set_mode>, std::_Select1st<std::pair<const std::__cxx11::basic_string<char>, colvarparse::key_set_mode>>, std::less<std::__cxx11::basic_string<char>>>::_Rb_tree_impl" = type { %"struct.std::_Rb_tree_key_compare", %"struct.std::_Rb_tree_header" }
%"class.std::__cxx11::list.35" = type { %"class.std::__cxx11::_List_base.36" }
%"class.std::__cxx11::_List_base.36" = type { %"struct.std::__cxx11::_List_base<unsigned long, std::allocator<unsigned long>>::_List_impl" }
%"struct.std::__cxx11::_List_base<unsigned long, std::allocator<unsigned long>>::_List_impl" = type { %"struct.std::__detail::_List_node_header" }
%class.colvardeps = type { ptr, %"class.std::__cxx11::basic_string", i32, %"class.std::vector.40", %"class.std::vector.45", %"class.std::vector.45" }
%"class.std::vector.40" = type { %"struct.std::_Vector_base.41" }
%"struct.std::_Vector_base.41" = type { %"struct.std::_Vector_base<colvardeps::feature_state, std::allocator<colvardeps::feature_state>>::_Vector_impl" }
%"struct.std::_Vector_base<colvardeps::feature_state, std::allocator<colvardeps::feature_state>>::_Vector_impl" = type { %"struct.std::_Vector_base<colvardeps::feature_state, std::allocator<colvardeps::feature_state>>::_Vector_impl_data" }
%"struct.std::_Vector_base<colvardeps::feature_state, std::allocator<colvardeps::feature_state>>::_Vector_impl_data" = type { ptr, ptr, ptr }
%"class.std::vector.45" = type { %"struct.std::_Vector_base.46" }
%"struct.std::_Vector_base.46" = type { %"struct.std::_Vector_base<colvardeps *, std::allocator<colvardeps *>>::_Vector_impl" }
%"struct.std::_Vector_base<colvardeps *, std::allocator<colvardeps *>>::_Vector_impl" = type { %"struct.std::_Vector_base<colvardeps *, std::allocator<colvardeps *>>::_Vector_impl_data" }
%"struct.std::_Vector_base<colvardeps *, std::allocator<colvardeps *>>::_Vector_impl_data" = type { ptr, ptr, ptr }
%class.colvarbias_ti.base = type { ptr, %"class.std::vector.55", ptr, ptr, %"class.std::vector.60" }

@_ZN12colvarmodule2itE = external global i64, align 8

; Function Attrs: mustprogress nounwind uwtable
define linkonce_odr void @_ZNSt14_List_iteratorIN15colvarbias_meta4hillEEC2EPNSt8__detail15_List_node_baseE(ptr noundef nonnull align 8 dereferenceable(8) %0, ptr noundef %1) unnamed_addr #1 comdat align 2 {
  %3 = alloca ptr, align 8
  %4 = alloca ptr, align 8
  store ptr %0, ptr %3, align 8
  store ptr %1, ptr %4, align 8
  %5 = load ptr, ptr %3, align 8
  %6 = getelementptr inbounds %"struct.std::_List_iterator", ptr %5, i32 0, i32 0
  %7 = load ptr, ptr %4, align 8
  store ptr %7, ptr %6, align 8
  ret void
}

; Function Attrs: mustprogress nounwind uwtable
define linkonce_odr noundef nonnull align 8 dereferenceable(8) ptr @_ZNSt6vectorIP15colvarbias_metaSaIS1_EEixEm(ptr noundef nonnull align 8 dereferenceable(24) %0, i64 noundef %1) #1 comdat align 2 {
  %3 = alloca ptr, align 8
  %4 = alloca i64, align 8
  store ptr %0, ptr %3, align 8
  store i64 %1, ptr %4, align 8
  %5 = load ptr, ptr %3, align 8
  %6 = getelementptr inbounds %"struct.std::_Vector_base.12", ptr %5, i32 0, i32 0
  %7 = getelementptr inbounds %"struct.std::_Vector_base<colvarbias_meta *, std::allocator<colvarbias_meta *>>::_Vector_impl_data", ptr %6, i32 0, i32 0
  %8 = load ptr, ptr %7, align 8
  %9 = load i64, ptr %4, align 8
  %10 = getelementptr inbounds ptr, ptr %8, i64 %9
  ret ptr %10
}

; Function Attrs: mustprogress nounwind uwtable
define linkonce_odr noundef i64 @_ZNKSt6vectorIP15colvarbias_metaSaIS1_EE4sizeEv(ptr noundef nonnull align 8 dereferenceable(24) %0) #1 comdat align 2 {
  %2 = alloca ptr, align 8
  store ptr %0, ptr %2, align 8
  %3 = load ptr, ptr %2, align 8
  %4 = getelementptr inbounds %"struct.std::_Vector_base.12", ptr %3, i32 0, i32 0
  %5 = getelementptr inbounds %"struct.std::_Vector_base<colvarbias_meta *, std::allocator<colvarbias_meta *>>::_Vector_impl_data", ptr %4, i32 0, i32 1
  %6 = load ptr, ptr %5, align 8
  %7 = getelementptr inbounds %"struct.std::_Vector_base.12", ptr %3, i32 0, i32 0
  %8 = getelementptr inbounds %"struct.std::_Vector_base<colvarbias_meta *, std::allocator<colvarbias_meta *>>::_Vector_impl_data", ptr %7, i32 0, i32 0
  %9 = load ptr, ptr %8, align 8
  %10 = ptrtoint ptr %6 to i64
  %11 = ptrtoint ptr %9 to i64
  %12 = sub i64 %10, %11
  %13 = sdiv exact i64 %12, 8
  ret i64 %13
}

; Function Attrs: mustprogress nounwind uwtable
define linkonce_odr ptr @_ZNSt7__cxx114listIN15colvarbias_meta4hillESaIS2_EE3endEv(ptr noundef nonnull align 8 dereferenceable(24) %0) #1 comdat align 2 {
  %2 = alloca %"struct.std::_List_iterator", align 8
  %3 = alloca ptr, align 8
  store ptr %0, ptr %3, align 8
  %4 = load ptr, ptr %3, align 8
  %5 = getelementptr inbounds %"class.std::__cxx11::_List_base", ptr %4, i32 0, i32 0
  %6 = getelementptr inbounds %"struct.std::__cxx11::_List_base<colvarbias_meta::hill, std::allocator<colvarbias_meta::hill>>::_List_impl", ptr %5, i32 0, i32 0
  call void @_ZNSt14_List_iteratorIN15colvarbias_meta4hillEEC2EPNSt8__detail15_List_node_baseE(ptr noundef nonnull align 8 dereferenceable(8) %2, ptr noundef %6) #14
  %7 = getelementptr inbounds %"struct.std::_List_iterator", ptr %2, i32 0, i32 0
  %8 = load ptr, ptr %7, align 8
  ret ptr %8
}

; Function Attrs: mustprogress nounwind uwtable
define linkonce_odr noundef i64 @_ZN12colvarmodule13step_absoluteEv() #1 comdat align 2 {
  %1 = load i64, ptr @_ZN12colvarmodule2itE, align 8
  ret i64 %1
}

; Function Attrs: mustprogress uwtable
define noundef i32 @_ZN15colvarbias_meta16update_grid_dataEv(ptr noundef nonnull align 8 dereferenceable(880) %0) unnamed_addr #4 align 2 {
  %2 = alloca ptr, align 8
  %3 = alloca %"struct.std::_List_iterator", align 8
  %4 = alloca %"struct.std::_List_iterator", align 8
  %5 = alloca %"struct.std::_List_iterator", align 8
  %6 = alloca i64, align 8
  %7 = alloca %"struct.std::_List_iterator", align 8
  %8 = alloca %"struct.std::_List_iterator", align 8
  %9 = alloca %"struct.std::_List_iterator", align 8
  store ptr %0, ptr %2, align 8
  %10 = load ptr, ptr %2, align 8
  %11 = call noundef i64 @_ZN12colvarmodule13step_absoluteEv()
  %12 = getelementptr inbounds %class.colvarbias_meta, ptr %10, i32 0, i32 14
  %13 = load i64, ptr %12, align 8
  %14 = urem i64 %11, %13
  %15 = icmp eq i64 %14, 0
  br i1 %15, label %16, label %92

16:                                               ; preds = %1
  %17 = getelementptr inbounds %class.colvarbias_meta, ptr %10, i32 0, i32 7
  call void @llvm.memcpy.p0.p0.i64(ptr align 8 %3, ptr align 8 %17, i64 8, i1 false)
  %18 = getelementptr inbounds %class.colvarbias_meta, ptr %10, i32 0, i32 6
  %19 = call ptr @_ZNSt7__cxx114listIN15colvarbias_meta4hillESaIS2_EE3endEv(ptr noundef nonnull align 8 dereferenceable(24) %18) #14
  %20 = getelementptr inbounds %"struct.std::_List_iterator", ptr %4, i32 0, i32 0
  store ptr %19, ptr %20, align 8
  %21 = getelementptr inbounds %class.colvarbias_meta, ptr %10, i32 0, i32 26
  %22 = load ptr, ptr %21, align 8
  %23 = getelementptr inbounds %class.colvarbias_meta, ptr %10, i32 0, i32 27
  %24 = load ptr, ptr %23, align 8
  %25 = getelementptr inbounds %"struct.std::_List_iterator", ptr %3, i32 0, i32 0
  %26 = load ptr, ptr %25, align 8
  %27 = getelementptr inbounds %"struct.std::_List_iterator", ptr %4, i32 0, i32 0
  %28 = load ptr, ptr %27, align 8
  call void @_ZN15colvarbias_meta13project_hillsESt14_List_iteratorINS_4hillEES2_P18colvar_grid_scalarP20colvar_grid_gradientb(ptr noundef nonnull align 8 dereferenceable(880) %10, ptr %26, ptr %28, ptr noundef %22, ptr noundef %24, i1 noundef zeroext false)
  %29 = getelementptr inbounds %class.colvarbias_meta, ptr %10, i32 0, i32 6
  %30 = call ptr @_ZNSt7__cxx114listIN15colvarbias_meta4hillESaIS2_EE3endEv(ptr noundef nonnull align 8 dereferenceable(24) %29) #14
  %31 = getelementptr inbounds %"struct.std::_List_iterator", ptr %5, i32 0, i32 0
  store ptr %30, ptr %31, align 8
  %32 = getelementptr inbounds %class.colvarbias_meta, ptr %10, i32 0, i32 7
  call void @llvm.memcpy.p0.p0.i64(ptr align 8 %32, ptr align 8 %5, i64 8, i1 false)
  %33 = getelementptr inbounds %class.colvarbias_meta, ptr %10, i32 0, i32 1
  %34 = load i32, ptr %33, align 8
  %35 = icmp eq i32 %34, 1
  br i1 %35, label %36, label %91

36:                                               ; preds = %16
  store i64 0, ptr %6, align 8
  br label %37

37:                                               ; preds = %87, %36
  %38 = load i64, ptr %6, align 8
  %39 = getelementptr inbounds %class.colvarbias_meta, ptr %10, i32 0, i32 30
  %40 = call noundef i64 @_ZNKSt6vectorIP15colvarbias_metaSaIS1_EE4sizeEv(ptr noundef nonnull align 8 dereferenceable(24) %39) #14
  %41 = icmp ult i64 %38, %40
  br i1 %41, label %42, label %90

42:                                               ; preds = %37
  %43 = getelementptr inbounds %class.colvarbias_meta, ptr %10, i32 0, i32 30
  %44 = load i64, ptr %6, align 8
  %45 = call noundef nonnull align 8 dereferenceable(8) ptr @_ZNSt6vectorIP15colvarbias_metaSaIS1_EEixEm(ptr noundef nonnull align 8 dereferenceable(24) %43, i64 noundef %44) #14
  %46 = load ptr, ptr %45, align 8
  %47 = getelementptr inbounds %class.colvarbias_meta, ptr %10, i32 0, i32 30
  %48 = load i64, ptr %6, align 8
  %49 = call noundef nonnull align 8 dereferenceable(8) ptr @_ZNSt6vectorIP15colvarbias_metaSaIS1_EEixEm(ptr noundef nonnull align 8 dereferenceable(24) %47, i64 noundef %48) #14
  %50 = load ptr, ptr %49, align 8
  %51 = getelementptr inbounds %class.colvarbias_meta, ptr %50, i32 0, i32 7
  call void @llvm.memcpy.p0.p0.i64(ptr align 8 %7, ptr align 8 %51, i64 8, i1 false)
  %52 = getelementptr inbounds %class.colvarbias_meta, ptr %10, i32 0, i32 30
  %53 = load i64, ptr %6, align 8
  %54 = call noundef nonnull align 8 dereferenceable(8) ptr @_ZNSt6vectorIP15colvarbias_metaSaIS1_EEixEm(ptr noundef nonnull align 8 dereferenceable(24) %52, i64 noundef %53) #14
  %55 = load ptr, ptr %54, align 8
  %56 = getelementptr inbounds %class.colvarbias_meta, ptr %55, i32 0, i32 6
  %57 = call ptr @_ZNSt7__cxx114listIN15colvarbias_meta4hillESaIS2_EE3endEv(ptr noundef nonnull align 8 dereferenceable(24) %56) #14
  %58 = getelementptr inbounds %"struct.std::_List_iterator", ptr %8, i32 0, i32 0
  store ptr %57, ptr %58, align 8
  %59 = getelementptr inbounds %class.colvarbias_meta, ptr %10, i32 0, i32 30
  %60 = load i64, ptr %6, align 8
  %61 = call noundef nonnull align 8 dereferenceable(8) ptr @_ZNSt6vectorIP15colvarbias_metaSaIS1_EEixEm(ptr noundef nonnull align 8 dereferenceable(24) %59, i64 noundef %60) #14
  %62 = load ptr, ptr %61, align 8
  %63 = getelementptr inbounds %class.colvarbias_meta, ptr %62, i32 0, i32 26
  %64 = load ptr, ptr %63, align 8
  %65 = getelementptr inbounds %class.colvarbias_meta, ptr %10, i32 0, i32 30
  %66 = load i64, ptr %6, align 8
  %67 = call noundef nonnull align 8 dereferenceable(8) ptr @_ZNSt6vectorIP15colvarbias_metaSaIS1_EEixEm(ptr noundef nonnull align 8 dereferenceable(24) %65, i64 noundef %66) #14
  %68 = load ptr, ptr %67, align 8
  %69 = getelementptr inbounds %class.colvarbias_meta, ptr %68, i32 0, i32 27
  %70 = load ptr, ptr %69, align 8
  %71 = getelementptr inbounds %"struct.std::_List_iterator", ptr %7, i32 0, i32 0
  %72 = load ptr, ptr %71, align 8
  %73 = getelementptr inbounds %"struct.std::_List_iterator", ptr %8, i32 0, i32 0
  %74 = load ptr, ptr %73, align 8
  call void @_ZN15colvarbias_meta13project_hillsESt14_List_iteratorINS_4hillEES2_P18colvar_grid_scalarP20colvar_grid_gradientb(ptr noundef nonnull align 8 dereferenceable(880) %46, ptr %72, ptr %74, ptr noundef %64, ptr noundef %70, i1 noundef zeroext false)
  %75 = getelementptr inbounds %class.colvarbias_meta, ptr %10, i32 0, i32 30
  %76 = load i64, ptr %6, align 8
  %77 = call noundef nonnull align 8 dereferenceable(8) ptr @_ZNSt6vectorIP15colvarbias_metaSaIS1_EEixEm(ptr noundef nonnull align 8 dereferenceable(24) %75, i64 noundef %76) #14
  %78 = load ptr, ptr %77, align 8
  %79 = getelementptr inbounds %class.colvarbias_meta, ptr %78, i32 0, i32 6
  %80 = call ptr @_ZNSt7__cxx114listIN15colvarbias_meta4hillESaIS2_EE3endEv(ptr noundef nonnull align 8 dereferenceable(24) %79) #14
  %81 = getelementptr inbounds %"struct.std::_List_iterator", ptr %9, i32 0, i32 0
  store ptr %80, ptr %81, align 8
  %82 = getelementptr inbounds %class.colvarbias_meta, ptr %10, i32 0, i32 30
  %83 = load i64, ptr %6, align 8
  %84 = call noundef nonnull align 8 dereferenceable(8) ptr @_ZNSt6vectorIP15colvarbias_metaSaIS1_EEixEm(ptr noundef nonnull align 8 dereferenceable(24) %82, i64 noundef %83) #14
  %85 = load ptr, ptr %84, align 8
  %86 = getelementptr inbounds %class.colvarbias_meta, ptr %85, i32 0, i32 7
  call void @llvm.memcpy.p0.p0.i64(ptr align 8 %86, ptr align 8 %9, i64 8, i1 false)
  br label %87

87:                                               ; preds = %42
  %88 = load i64, ptr %6, align 8
  %89 = add i64 %88, 1
  store i64 %89, ptr %6, align 8
  br label %37, !llvm.loop !10

90:                                               ; preds = %37
  br label %91

91:                                               ; preds = %90, %16
  br label %92

92:                                               ; preds = %91, %1
  ret i32 0
}