; Function Attrs: mustprogress uwtable
define noundef i32 @_ZN15colvarbias_meta16update_grid_dataEv(ptr noundef nonnull align 8 dereferenceable(880) %0) unnamed_addr #4 align 2 {
  %2 = load i64, ptr @_ZN12colvarmodule2itE, align 8
  %3 = getelementptr inbounds i8, ptr %0, i64 144
  %4 = load i64, ptr %3, align 8
  %5 = urem i64 %2, %4
  %6 = icmp eq i64 %5, 0
  br i1 %6, label %7, label %.loopexit

7:                                                ; preds = %1
  %8 = getelementptr inbounds i8, ptr %0, i64 88
  %.sroa.013.0.copyload = load ptr, ptr %8, align 8
  %9 = getelementptr inbounds i8, ptr %0, i64 64
  %10 = getelementptr inbounds i8, ptr %0, i64 200
  %11 = load ptr, ptr %10, align 8
  %12 = getelementptr inbounds i8, ptr %0, i64 208
  %13 = load ptr, ptr %12, align 8
  tail call void @_ZN15colvarbias_meta13project_hillsESt14_List_iteratorINS_4hillEES2_P18colvar_grid_scalarP20colvar_grid_gradientb(ptr noundef nonnull align 8 dereferenceable(880) %0, ptr %.sroa.013.0.copyload, ptr nonnull %9, ptr noundef %11, ptr noundef %13, i1 noundef zeroext false)
  store ptr %9, ptr %8, align 8
  %14 = getelementptr inbounds i8, ptr %0, i64 8
  %15 = load i32, ptr %14, align 8
  %16 = icmp eq i32 %15, 1
  br i1 %16, label %.preheader, label %.loopexit

.preheader:                                       ; preds = %7
  %17 = getelementptr inbounds i8, ptr %0, i64 280
  %18 = getelementptr inbounds i8, ptr %0, i64 288
  %19 = load ptr, ptr %18, align 8
  %20 = load ptr, ptr %17, align 8
  %.not = icmp eq ptr %19, %20
  br i1 %.not, label %.loopexit, label %.lr.ph

.lr.ph:                                           ; preds = %.preheader, %.lr.ph
  %21 = phi ptr [ %37, %.lr.ph ], [ %20, %.preheader ]
  %.014 = phi i64 [ %35, %.lr.ph ], [ 0, %.preheader ]
  %22 = getelementptr inbounds ptr, ptr %21, i64 %.014
  %23 = load ptr, ptr %22, align 8
  %24 = getelementptr inbounds i8, ptr %23, i64 88
  %.sroa.02.0.copyload = load ptr, ptr %24, align 8
  %25 = getelementptr inbounds i8, ptr %23, i64 64
  %26 = getelementptr inbounds i8, ptr %23, i64 200
  %27 = load ptr, ptr %26, align 8
  %28 = getelementptr inbounds i8, ptr %23, i64 208
  %29 = load ptr, ptr %28, align 8
  tail call void @_ZN15colvarbias_meta13project_hillsESt14_List_iteratorINS_4hillEES2_P18colvar_grid_scalarP20colvar_grid_gradientb(ptr noundef nonnull align 8 dereferenceable(880) %23, ptr %.sroa.02.0.copyload, ptr nonnull %25, ptr noundef %27, ptr noundef %29, i1 noundef zeroext false)
  %30 = load ptr, ptr %17, align 8
  %31 = getelementptr inbounds ptr, ptr %30, i64 %.014
  %32 = load ptr, ptr %31, align 8
  %33 = getelementptr inbounds i8, ptr %32, i64 64
  %34 = getelementptr inbounds i8, ptr %32, i64 88
  store ptr %33, ptr %34, align 8
  %35 = add nuw i64 %.014, 1
  %36 = load ptr, ptr %18, align 8
  %37 = load ptr, ptr %17, align 8
  %38 = ptrtoint ptr %36 to i64
  %39 = ptrtoint ptr %37 to i64
  %40 = sub i64 %38, %39
  %41 = ashr exact i64 %40, 3
  %42 = icmp ult i64 %35, %41
  br i1 %42, label %.lr.ph, label %.loopexit, !llvm.loop !57

.loopexit:                                        ; preds = %.lr.ph, %.preheader, %7, %1
  ret i32 0
}